target datalayout = "e-m:e-p270:32:32-p271:32:32-p272:64:64-i64:64-i128:128-f80:128-n8:16:32:64-S128"
target triple = "x86_64-unknown-linux-gnu"

%struct.sockaddr_in = type { i16, i16, %struct.in_addr, [8 x i8] }
%struct.in_addr = type { i32 }
%struct.NetSocketState = type { %struct.NetClientState, i32, i32, %struct.SocketReadState, i32, %struct.sockaddr_in, ptr, i8, i8 }
%struct.NetClientState = type { ptr, i32, %union.anon.1, ptr, ptr, ptr, ptr, [256 x i8], i8, ptr, i32, i8, i32, i32, i8, i8, i8, %union.anon.2 }
%union.anon.1 = type { %struct.QTailQLink }
%struct.QTailQLink = type { ptr, ptr }
%union.anon.2 = type { %struct.QTailQLink }
%struct.SocketReadState = type { i32, i8, i32, i32, i32, [69632 x i8], ptr }

@.str.1 = private unnamed_addr constant [21 x i8] c"../qemu/net/socket.c\00", align 1
@__func__.net_socket_mcast_init = private unnamed_addr constant [22 x i8] c"net_socket_mcast_init\00", align 1
@.str.28 = private unnamed_addr constant [43 x i8] c"localaddr '%s' is not a valid IPv4 address\00", align 1
@.str.29 = private unnamed_addr constant [20 x i8] c"socket: mcast=%s:%d\00", align 1

; Function Attrs: nounwind sspstrong uwtable
define internal i32 @net_socket_mcast_init(ptr noundef %peer, ptr noundef %model, ptr noundef %name, ptr noundef %host_str, ptr noundef %localaddr_str, ptr noundef %errp) #0 {
entry:
  %retval = alloca i32, align 4
  %peer.addr = alloca ptr, align 8
  %model.addr = alloca ptr, align 8
  %name.addr = alloca ptr, align 8
  %host_str.addr = alloca ptr, align 8
  %localaddr_str.addr = alloca ptr, align 8
  %errp.addr = alloca ptr, align 8
  %s = alloca ptr, align 8
  %fd = alloca i32, align 4
  %saddr = alloca %struct.sockaddr_in, align 4
  %localaddr = alloca %struct.in_addr, align 4
  %param_localaddr = alloca ptr, align 8
  store ptr %peer, ptr %peer.addr, align 8
  store ptr %model, ptr %model.addr, align 8
  store ptr %name, ptr %name.addr, align 8
  store ptr %host_str, ptr %host_str.addr, align 8
  store ptr %localaddr_str, ptr %localaddr_str.addr, align 8
  store ptr %errp, ptr %errp.addr, align 8
  %0 = load ptr, ptr %host_str.addr, align 8
  %1 = load ptr, ptr %errp.addr, align 8
  %call = call i32 @parse_host_port(ptr noundef %saddr, ptr noundef %0, ptr noundef %1)
  %cmp = icmp slt i32 %call, 0
  br i1 %cmp, label %if.then, label %if.end

if.then:                                          ; preds = %entry
  store i32 -1, ptr %retval, align 4
  br label %return

if.end:                                           ; preds = %entry
  %2 = load ptr, ptr %localaddr_str.addr, align 8
  %cmp1 = icmp ne ptr %2, null
  br i1 %cmp1, label %if.then2, label %if.else

if.then2:                                         ; preds = %if.end
  %3 = load ptr, ptr %localaddr_str.addr, align 8
  %call3 = call i32 @inet_aton(ptr noundef %3, ptr noundef %localaddr) #7
  %cmp4 = icmp eq i32 %call3, 0
  br i1 %cmp4, label %if.then5, label %if.end6

if.then5:                                         ; preds = %if.then2
  %4 = load ptr, ptr %errp.addr, align 8
  %5 = load ptr, ptr %localaddr_str.addr, align 8
  call void (ptr, ptr, i32, ptr, ptr, ...) @error_setg_internal(ptr noundef %4, ptr noundef @.str.1, i32 noundef 609, ptr noundef @__func__.net_socket_mcast_init, ptr noundef @.str.28, ptr noundef %5)
  store i32 -1, ptr %retval, align 4
  br label %return

if.end6:                                          ; preds = %if.then2
  store ptr %localaddr, ptr %param_localaddr, align 8
  br label %if.end7

if.else:                                          ; preds = %if.end
  store ptr null, ptr %param_localaddr, align 8
  br label %if.end7

if.end7:                                          ; preds = %if.else, %if.end6
  %6 = load ptr, ptr %param_localaddr, align 8
  %7 = load ptr, ptr %errp.addr, align 8
  %call8 = call i32 @net_socket_mcast_create(ptr noundef %saddr, ptr noundef %6, ptr noundef %7)
  store i32 %call8, ptr %fd, align 4
  %8 = load i32, ptr %fd, align 4
  %cmp9 = icmp slt i32 %8, 0
  br i1 %cmp9, label %if.then10, label %if.end11

if.then10:                                        ; preds = %if.end7
  store i32 -1, ptr %retval, align 4
  br label %return

if.end11:                                         ; preds = %if.end7
  %9 = load ptr, ptr %peer.addr, align 8
  %10 = load ptr, ptr %model.addr, align 8
  %11 = load ptr, ptr %name.addr, align 8
  %12 = load i32, ptr %fd, align 4
  %13 = load ptr, ptr %errp.addr, align 8
  %call12 = call ptr @net_socket_fd_init_dgram(ptr noundef %9, ptr noundef %10, ptr noundef %11, i32 noundef %12, i32 noundef 0, ptr noundef null, ptr noundef %13)
  store ptr %call12, ptr %s, align 8
  %14 = load ptr, ptr %s, align 8
  %tobool = icmp ne ptr %14, null
  br i1 %tobool, label %if.end14, label %if.then13

if.then13:                                        ; preds = %if.end11
  store i32 -1, ptr %retval, align 4
  br label %return

if.end14:                                         ; preds = %if.end11
  %15 = load ptr, ptr %s, align 8
  %dgram_dst = getelementptr inbounds %struct.NetSocketState, ptr %15, i32 0, i32 5
  call void @llvm.memcpy.p0.p0.i64(ptr align 4 %dgram_dst, ptr align 4 %saddr, i64 16, i1 false)
  %16 = load ptr, ptr %s, align 8
  %nc = getelementptr inbounds %struct.NetSocketState, ptr %16, i32 0, i32 0
  %sin_addr = getelementptr inbounds %struct.sockaddr_in, ptr %saddr, i32 0, i32 2
  %coerce.dive = getelementptr inbounds %struct.in_addr, ptr %sin_addr, i32 0, i32 0
  %17 = load i32, ptr %coerce.dive, align 4
  %call15 = call ptr @inet_ntoa(i32 %17) #7
  %sin_port = getelementptr inbounds %struct.sockaddr_in, ptr %saddr, i32 0, i32 1
  %18 = load i16, ptr %sin_port, align 2
  %call16 = call zeroext i16 @ntohs(i16 noundef zeroext %18) #8
  %conv = zext i16 %call16 to i32
  call void (ptr, ptr, ...) @qemu_set_info_str(ptr noundef %nc, ptr noundef @.str.29, ptr noundef %call15, i32 noundef %conv)
  store i32 0, ptr %retval, align 4
  br label %return

return:                                           ; preds = %if.end14, %if.then13, %if.then10, %if.then5, %if.then
  %19 = load i32, ptr %retval, align 4
  ret i32 %19
}