; Function Attrs: nounwind sspstrong uwtable
define internal fastcc range(i32 -1, 1) i32 @net_socket_mcast_init(ptr noundef %peer, ptr noundef %name, ptr noundef nonnull %host_str, ptr noundef %localaddr_str, ptr noundef %errp) unnamed_addr #0 {
entry:
  %saddr = alloca %struct.sockaddr_in, align 4
  %localaddr = alloca %struct.in_addr, align 4
  %call = call i32 @parse_host_port(ptr noundef nonnull %saddr, ptr noundef nonnull %host_str, ptr noundef %errp) #8
  %cmp = icmp slt i32 %call, 0
  br i1 %cmp, label %return, label %if.end

if.end:                                           ; preds = %entry
  %cmp1.not = icmp eq ptr %localaddr_str, null
  br i1 %cmp1.not, label %if.end7, label %if.then2

if.then2:                                         ; preds = %if.end
  %call3 = call i32 @inet_aton(ptr noundef nonnull %localaddr_str, ptr noundef nonnull %localaddr) #8
  %cmp4 = icmp eq i32 %call3, 0
  br i1 %cmp4, label %if.then5, label %if.end7

if.then5:                                         ; preds = %if.then2
  call void (ptr, ptr, i32, ptr, ptr, ...) @error_setg_internal(ptr noundef %errp, ptr noundef nonnull @.str.1, i32 noundef 609, ptr noundef nonnull @__func__.net_socket_mcast_init, ptr noundef nonnull @.str.28, ptr noundef nonnull %localaddr_str) #8
  br label %return

if.end7:                                          ; preds = %if.end, %if.then2
  %param_localaddr.0 = phi ptr [ %localaddr, %if.then2 ], [ null, %if.end ]
  %call8 = call fastcc i32 @net_socket_mcast_create(ptr noundef %saddr, ptr noundef %param_localaddr.0, ptr noundef %errp)
  %cmp9 = icmp slt i32 %call8, 0
  br i1 %cmp9, label %return, label %if.end11

if.end11:                                         ; preds = %if.end7
  %call12 = call fastcc ptr @net_socket_fd_init_dgram(ptr noundef %peer, ptr noundef %name, i32 noundef %call8, i32 noundef 0, ptr noundef null, ptr noundef %errp)
  %tobool.not = icmp eq ptr %call12, null
  br i1 %tobool.not, label %return, label %if.end14

if.end14:                                         ; preds = %if.end11
  %dgram_dst = getelementptr inbounds nuw i8, ptr %call12, i64 70052
  call void @llvm.memcpy.p0.p0.i64(ptr noundef nonnull align 4 dereferenceable(16) %dgram_dst, ptr noundef nonnull align 4 dereferenceable(16) %saddr, i64 16, i1 false)
  %sin_addr = getelementptr inbounds nuw i8, ptr %saddr, i64 4
  %0 = load i32, ptr %sin_addr, align 4
  %call15 = call ptr @inet_ntoa(i32 %0) #8
  %sin_port = getelementptr inbounds nuw i8, ptr %saddr, i64 2
  %1 = load i16, ptr %sin_port, align 2
  %call16 = call zeroext i16 @ntohs(i16 noundef zeroext %1) #9
  %conv = zext i16 %call16 to i32
  call void (ptr, ptr, ...) @qemu_set_info_str(ptr noundef nonnull %call12, ptr noundef nonnull @.str.29, ptr noundef %call15, i32 noundef %conv) #8
  br label %return

return:                                           ; preds = %if.end11, %if.end7, %entry, %if.end14, %if.then5
  %retval.0 = phi i32 [ -1, %if.then5 ], [ 0, %if.end14 ], [ -1, %entry ], [ -1, %if.end7 ], [ -1, %if.end11 ]
  ret i32 %retval.0
}